; Function Attrs: nounwind uwtable
define void @Abc_NtkMarkFanouts_rec(ptr noundef readonly captures(none) %0, i32 noundef %1, i32 noundef %2) local_unnamed_addr #0 {
  %4 = getelementptr i8, ptr %0, i64 20
  %.val = load i32, ptr %4, align 4
  %5 = and i32 %.val, 15
  %.not = icmp eq i32 %5, 7
  br i1 %.not, label %6, label %.critedge

6:                                                ; preds = %3
  %7 = tail call fastcc i32 @Abc_NodeIsTravIdCurrent(ptr noundef nonnull %0)
  %.not16 = icmp eq i32 %7, 0
  br i1 %.not16, label %8, label %.critedge

8:                                                ; preds = %6
  %.val17 = load ptr, ptr %0, align 8, !tbaa !3
  %9 = getelementptr i8, ptr %0, i64 16
  %.val18 = load i32, ptr %9, align 8, !tbaa !13
  %10 = getelementptr inbounds nuw i8, ptr %.val17, i64 216
  %11 = load i32, ptr %10, align 8, !tbaa !14
  %12 = getelementptr inbounds nuw i8, ptr %.val17, i64 224
  %13 = add nsw i32 %.val18, 1
  %14 = getelementptr inbounds nuw i8, ptr %.val17, i64 228
  %15 = load i32, ptr %14, align 4, !tbaa !28
  %.not.i.not.i.i.i = icmp slt i32 %.val18, %15
  br i1 %.not.i.not.i.i.i, label %Abc_NodeSetTravIdCurrent.exit, label %16

16:                                               ; preds = %8
  %17 = load i32, ptr %12, align 8, !tbaa !29
  %18 = shl nsw i32 %17, 1
  %.not.i.i.i = icmp slt i32 %.val18, %18
  %.not.i.i.not.i.i.i = icmp sgt i32 %17, %.val18
  br i1 %.not.i.i.i, label %31, label %19

19:                                               ; preds = %16
  br i1 %.not.i.i.not.i.i.i, label %Vec_IntGrow.exit.i.i.i.i, label %20

20:                                               ; preds = %19
  %21 = getelementptr inbounds nuw i8, ptr %.val17, i64 232
  %22 = load ptr, ptr %21, align 8, !tbaa !30
  %.not9.i.i.i.i.i = icmp eq ptr %22, null
  %23 = sext i32 %13 to i64
  %24 = shl nsw i64 %23, 2
  br i1 %.not9.i.i.i.i.i, label %27, label %25

25:                                               ; preds = %20
  %26 = tail call ptr @realloc(ptr noundef nonnull %22, i64 noundef %24) #14
  br label %29

27:                                               ; preds = %20
  %28 = tail call noalias ptr @malloc(i64 noundef %24) #15
  br label %29

29:                                               ; preds = %27, %25
  %30 = phi ptr [ %26, %25 ], [ %28, %27 ]
  store ptr %30, ptr %21, align 8, !tbaa !30
  br label %Vec_IntGrow.exit.sink.split.i.i.i.i

31:                                               ; preds = %16
  br i1 %.not.i.i.not.i.i.i, label %Vec_IntGrow.exit.i.i.i.i, label %32

32:                                               ; preds = %31
  %33 = getelementptr inbounds nuw i8, ptr %.val17, i64 232
  %34 = load ptr, ptr %33, align 8, !tbaa !30
  %.not9.i21.i.i.i.i = icmp eq ptr %34, null
  %35 = sext i32 %18 to i64
  %36 = shl nsw i64 %35, 2
  br i1 %.not9.i21.i.i.i.i, label %39, label %37

37:                                               ; preds = %32
  %38 = tail call ptr @realloc(ptr noundef nonnull %34, i64 noundef %36) #14
  br label %41

39:                                               ; preds = %32
  %40 = tail call noalias ptr @malloc(i64 noundef %36) #15
  br label %41

41:                                               ; preds = %39, %37
  %42 = phi ptr [ %38, %37 ], [ %40, %39 ]
  store ptr %42, ptr %33, align 8, !tbaa !30
  br label %Vec_IntGrow.exit.sink.split.i.i.i.i

Vec_IntGrow.exit.sink.split.i.i.i.i:              ; preds = %41, %29
  %.sink.i.i.i.i = phi i32 [ %18, %41 ], [ %13, %29 ]
  store i32 %.sink.i.i.i.i, ptr %12, align 8, !tbaa !29
  %.pre.i.i.i = load i32, ptr %14, align 4, !tbaa !28
  br label %Vec_IntGrow.exit.i.i.i.i

Vec_IntGrow.exit.i.i.i.i:                         ; preds = %Vec_IntGrow.exit.sink.split.i.i.i.i, %31, %19
  %43 = phi i32 [ %.pre.i.i.i, %Vec_IntGrow.exit.sink.split.i.i.i.i ], [ %15, %31 ], [ %15, %19 ]
  %.not4.i.i.i = icmp sgt i32 %43, %.val18
  br i1 %.not4.i.i.i, label %._crit_edge.i.i.i.i, label %.lr.ph.i.i.i.i

.lr.ph.i.i.i.i:                                   ; preds = %Vec_IntGrow.exit.i.i.i.i
  %44 = getelementptr inbounds nuw i8, ptr %.val17, i64 232
  %45 = load ptr, ptr %44, align 8, !tbaa !30
  %46 = sext i32 %43 to i64
  %47 = shl nsw i64 %46, 2
  %scevgep.i.i.i.i = getelementptr i8, ptr %45, i64 %47
  %48 = sub i32 %.val18, %43
  %49 = zext i32 %48 to i64
  %50 = shl nuw nsw i64 %49, 2
  %51 = add nuw nsw i64 %50, 4
  tail call void @llvm.memset.p0.i64(ptr noundef nonnull align 4 dereferenceable(1) %scevgep.i.i.i.i, i8 0, i64 %51, i1 false), !tbaa !31
  br label %._crit_edge.i.i.i.i

._crit_edge.i.i.i.i:                              ; preds = %.lr.ph.i.i.i.i, %Vec_IntGrow.exit.i.i.i.i
  store i32 %13, ptr %14, align 4, !tbaa !28
  br label %Abc_NodeSetTravIdCurrent.exit

Abc_NodeSetTravIdCurrent.exit:                    ; preds = %8, %._crit_edge.i.i.i.i
  %52 = getelementptr i8, ptr %.val17, i64 232
  %.val.i.i.i = load ptr, ptr %52, align 8, !tbaa !30
  %53 = sext i32 %.val18 to i64
  %54 = getelementptr inbounds i32, ptr %.val.i.i.i, i64 %53
  store i32 %11, ptr %54, align 4, !tbaa !31
  %.val19 = load i32, ptr %4, align 4
  %55 = lshr i32 %.val19, 12
  %56 = icmp sgt i32 %55, %1
  br i1 %56, label %.critedge, label %57

57:                                               ; preds = %Abc_NodeSetTravIdCurrent.exit
  %58 = getelementptr i8, ptr %0, i64 44
  %.val20 = load i32, ptr %58, align 4, !tbaa !40
  %59 = icmp sle i32 %.val20, %2
  %60 = icmp sgt i32 %.val20, 0
  %or.cond = and i1 %59, %60
  br i1 %or.cond, label %.lr.ph, label %.critedge

.lr.ph:                                           ; preds = %57
  %61 = getelementptr i8, ptr %0, i64 48
  br label %62

62:                                               ; preds = %.lr.ph, %62
  %indvars.iv = phi i64 [ 0, %.lr.ph ], [ %indvars.iv.next, %62 ]
  %.val22 = load ptr, ptr %0, align 8, !tbaa !3
  %.val23 = load ptr, ptr %61, align 8, !tbaa !41
  %63 = getelementptr i8, ptr %.val22, i64 32
  %.val22.val = load ptr, ptr %63, align 8, !tbaa !34
  %64 = getelementptr i8, ptr %.val22.val, i64 8
  %.val22.val.val = load ptr, ptr %64, align 8, !tbaa !35
  %65 = getelementptr inbounds nuw i32, ptr %.val23, i64 %indvars.iv
  %66 = load i32, ptr %65, align 4, !tbaa !31
  %67 = sext i32 %66 to i64
  %68 = getelementptr inbounds ptr, ptr %.val22.val.val, i64 %67
  %69 = load ptr, ptr %68, align 8, !tbaa !37
  tail call void @Abc_NtkMarkFanouts_rec(ptr noundef %69, i32 noundef %1, i32 noundef %2)
  %indvars.iv.next = add nuw nsw i64 %indvars.iv, 1
  %.val21 = load i32, ptr %58, align 4, !tbaa !40
  %70 = sext i32 %.val21 to i64
  %71 = icmp slt i64 %indvars.iv.next, %70
  br i1 %71, label %62, label %.critedge, !llvm.loop !42

.critedge:                                        ; preds = %62, %57, %Abc_NodeSetTravIdCurrent.exit, %6, %3
  ret void
}